; Function Attrs: mustprogress uwtable
define noundef i32 @_ZNK6casadi3Dot4evalEPPKdPPdPxS4_(ptr noundef nonnull readonly align 8 captures(none) dereferenceable(64) %0, ptr noundef readonly captures(none) %1, ptr noundef readonly captures(none) %2, ptr readnone captures(none) %3, ptr readnone captures(none) %4) unnamed_addr #3 align 2 {
  %6 = getelementptr inbounds nuw i8, ptr %0, i64 32
  %7 = getelementptr inbounds nuw i8, ptr %0, i64 40
  %8 = load ptr, ptr %7, align 8, !tbaa !47
  %9 = load ptr, ptr %6, align 8, !tbaa !37
  %.not.i.i.i.not.i = icmp eq ptr %8, %9
  br i1 %.not.i.i.i.not.i, label %10, label %_ZNK6casadi6MXNode3depEx.exit.i

10:                                               ; preds = %5
  tail call void (ptr, ...) @_ZSt24__throw_out_of_range_fmtPKcz(ptr noundef nonnull @.str.15, i64 noundef 0, i64 noundef 0) #21
  unreachable

_ZNK6casadi6MXNode3depEx.exit.i:                  ; preds = %5
  %11 = tail call noundef nonnull align 8 dereferenceable(8) ptr @_ZNK6casadi2MX8sparsityEv(ptr noundef nonnull align 8 dereferenceable(8) %9)
  %12 = tail call noundef i64 @_ZNK6casadi8Sparsity3nnzEv(ptr noundef nonnull align 8 dereferenceable(8) %11)
  %13 = icmp sgt i64 %12, 0
  br i1 %13, label %.lr.ph.i.preheader.i, label %_ZNK6casadi3Dot8eval_genIdEEiPPKT_PPS2_PxS6_.exit

.lr.ph.i.preheader.i:                             ; preds = %_ZNK6casadi6MXNode3depEx.exit.i
  %14 = getelementptr inbounds nuw i8, ptr %1, i64 8
  %15 = load ptr, ptr %14, align 8, !tbaa !50
  %16 = load ptr, ptr %1, align 8, !tbaa !50
  br label %.lr.ph.i.i

.lr.ph.i.i:                                       ; preds = %.lr.ph.i.i, %.lr.ph.i.preheader.i
  %.012.i.i = phi double [ %21, %.lr.ph.i.i ], [ 0.000000e+00, %.lr.ph.i.preheader.i ]
  %.0611.i.i = phi i64 [ %22, %.lr.ph.i.i ], [ 0, %.lr.ph.i.preheader.i ]
  %.0710.i.i = phi ptr [ %19, %.lr.ph.i.i ], [ %15, %.lr.ph.i.preheader.i ]
  %.089.i.i = phi ptr [ %17, %.lr.ph.i.i ], [ %16, %.lr.ph.i.preheader.i ]
  %17 = getelementptr inbounds nuw i8, ptr %.089.i.i, i64 8
  %18 = load double, ptr %.089.i.i, align 8, !tbaa !52
  %19 = getelementptr inbounds nuw i8, ptr %.0710.i.i, i64 8
  %20 = load double, ptr %.0710.i.i, align 8, !tbaa !52
  %21 = tail call double @llvm.fmuladd.f64(double %18, double %20, double %.012.i.i)
  %22 = add nuw nsw i64 %.0611.i.i, 1
  %exitcond.not.i.i = icmp eq i64 %22, %12
  br i1 %exitcond.not.i.i, label %_ZNK6casadi3Dot8eval_genIdEEiPPKT_PPS2_PxS6_.exit, label %.lr.ph.i.i, !llvm.loop !54

_ZNK6casadi3Dot8eval_genIdEEiPPKT_PPS2_PxS6_.exit: ; preds = %.lr.ph.i.i, %_ZNK6casadi6MXNode3depEx.exit.i
  %.0.lcssa.i.i = phi double [ 0.000000e+00, %_ZNK6casadi6MXNode3depEx.exit.i ], [ %21, %.lr.ph.i.i ]
  %23 = load ptr, ptr %2, align 8, !tbaa !50
  store double %.0.lcssa.i.i, ptr %23, align 8, !tbaa !52
  ret i32 0
}